target datalayout = "e-m:e-p270:32:32-p271:32:32-p272:64:64-i64:64-i128:128-f80:128-n8:16:32:64-S128"
target triple = "x86_64-pc-linux-gnu"

%class.cmXMLParser = type { ptr, i32, ptr, ptr, ptr }

; Function Attrs: mustprogress uwtable
define dso_local void @_ZN11cmXMLParser19ReportXmlParseErrorEv(ptr noundef nonnull align 8 dereferenceable(40) %0) unnamed_addr #7 align 2 {
  %2 = alloca ptr, align 8
  %3 = alloca ptr, align 8
  store ptr %0, ptr %2, align 8
  %4 = load ptr, ptr %2, align 8
  %5 = getelementptr inbounds %class.cmXMLParser, ptr %4, i32 0, i32 4
  %6 = load ptr, ptr %5, align 8
  store ptr %6, ptr %3, align 8
  %7 = load ptr, ptr %3, align 8
  %8 = call i64 @XML_GetCurrentLineNumber(ptr noundef %7)
  %9 = trunc i64 %8 to i32
  %10 = load ptr, ptr %3, align 8
  %11 = call i64 @XML_GetCurrentColumnNumber(ptr noundef %10)
  %12 = trunc i64 %11 to i32
  %13 = load ptr, ptr %3, align 8
  %14 = call i32 @XML_GetErrorCode(ptr noundef %13)
  %15 = call ptr @XML_ErrorString(i32 noundef %14)
  %16 = load ptr, ptr %4, align 8
  %17 = getelementptr inbounds ptr, ptr %16, i64 12
  %18 = load ptr, ptr %17, align 8
  call void %18(ptr noundef nonnull align 8 dereferenceable(40) %4, i32 noundef %9, i32 noundef %12, ptr noundef %15)
  ret void
}