; Function Attrs: mustprogress uwtable
define dso_local void @_ZN11cmXMLParser19ReportXmlParseErrorEv(ptr noundef nonnull align 8 dereferenceable(40) %0) unnamed_addr #7 align 2 {
  %2 = getelementptr inbounds i8, ptr %0, i64 32
  %3 = load ptr, ptr %2, align 8
  %4 = tail call i64 @XML_GetCurrentLineNumber(ptr noundef %3)
  %5 = trunc i64 %4 to i32
  %6 = tail call i64 @XML_GetCurrentColumnNumber(ptr noundef %3)
  %7 = trunc i64 %6 to i32
  %8 = tail call i32 @XML_GetErrorCode(ptr noundef %3)
  %9 = tail call ptr @XML_ErrorString(i32 noundef %8)
  %10 = load ptr, ptr %0, align 8
  %11 = getelementptr inbounds i8, ptr %10, i64 96
  %12 = load ptr, ptr %11, align 8
  tail call void %12(ptr noundef nonnull align 8 dereferenceable(40) %0, i32 noundef %5, i32 noundef %7, ptr noundef %9)
  ret void
}